target datalayout = "e-m:e-p270:32:32-p271:32:32-p272:64:64-i64:64-i128:128-f80:128-n8:16:32:64-S128"
target triple = "x86_64-pc-linux-gnu"

%struct._zval_struct = type { %union._zend_value, %union.anon, %union.anon.2 }
%union._zend_value = type { i64 }
%union.anon = type { i32 }
%union.anon.2 = type { i32 }
%struct._pdo_dbh_t = type { ptr, ptr, ptr, ptr, i32, ptr, i64, [6 x i8], i32, i32, i32, ptr, i64, i32, [2 x ptr], ptr, ptr, %struct._zval_struct, ptr, %struct._zval_struct, i32 }
%struct.pdo_sqlite_db_handle = type { ptr, %struct.pdo_sqlite_error_info, ptr, ptr }
%struct.pdo_sqlite_error_info = type { ptr, i32, i32, ptr }

; Function Attrs: nounwind uwtable
define internal void @sqlite_handle_closer(ptr noundef %0) #0 {
  %2 = alloca ptr, align 8
  %3 = alloca ptr, align 8
  %4 = alloca ptr, align 8
  store ptr %0, ptr %2, align 8
  %5 = load ptr, ptr %2, align 8
  %6 = getelementptr inbounds %struct._pdo_dbh_t, ptr %5, i32 0, i32 1
  %7 = load ptr, ptr %6, align 8
  store ptr %7, ptr %3, align 8
  %8 = load ptr, ptr %3, align 8
  %9 = icmp ne ptr %8, null
  br i1 %9, label %10, label %60

10:                                               ; preds = %1
  %11 = load ptr, ptr %3, align 8
  %12 = getelementptr inbounds %struct.pdo_sqlite_db_handle, ptr %11, i32 0, i32 1
  store ptr %12, ptr %4, align 8
  %13 = load ptr, ptr %3, align 8
  call void @pdo_sqlite_cleanup_callbacks(ptr noundef %13)
  %14 = load ptr, ptr %3, align 8
  %15 = getelementptr inbounds %struct.pdo_sqlite_db_handle, ptr %14, i32 0, i32 0
  %16 = load ptr, ptr %15, align 8
  %17 = icmp ne ptr %16, null
  br i1 %17, label %18, label %25

18:                                               ; preds = %10
  %19 = load ptr, ptr %3, align 8
  %20 = getelementptr inbounds %struct.pdo_sqlite_db_handle, ptr %19, i32 0, i32 0
  %21 = load ptr, ptr %20, align 8
  %22 = call i32 @sqlite3_close_v2(ptr noundef %21)
  %23 = load ptr, ptr %3, align 8
  %24 = getelementptr inbounds %struct.pdo_sqlite_db_handle, ptr %23, i32 0, i32 0
  store ptr null, ptr %24, align 8
  br label %25

25:                                               ; preds = %18, %10
  %26 = load ptr, ptr %4, align 8
  %27 = getelementptr inbounds %struct.pdo_sqlite_error_info, ptr %26, i32 0, i32 3
  %28 = load ptr, ptr %27, align 8
  %29 = icmp ne ptr %28, null
  br i1 %29, label %30, label %47

30:                                               ; preds = %25
  %31 = load ptr, ptr %2, align 8
  %32 = getelementptr inbounds %struct._pdo_dbh_t, ptr %31, i32 0, i32 4
  %33 = load i32, ptr %32, align 8
  %34 = and i32 %33, 1
  %35 = icmp ne i32 %34, 0
  br i1 %35, label %36, label %40

36:                                               ; preds = %30
  %37 = load ptr, ptr %4, align 8
  %38 = getelementptr inbounds %struct.pdo_sqlite_error_info, ptr %37, i32 0, i32 3
  %39 = load ptr, ptr %38, align 8
  call void @free(ptr noundef %39) #9
  br label %44

40:                                               ; preds = %30
  %41 = load ptr, ptr %4, align 8
  %42 = getelementptr inbounds %struct.pdo_sqlite_error_info, ptr %41, i32 0, i32 3
  %43 = load ptr, ptr %42, align 8
  call void @_efree(ptr noundef %43)
  br label %44

44:                                               ; preds = %40, %36
  %45 = load ptr, ptr %4, align 8
  %46 = getelementptr inbounds %struct.pdo_sqlite_error_info, ptr %45, i32 0, i32 3
  store ptr null, ptr %46, align 8
  br label %47

47:                                               ; preds = %44, %25
  %48 = load ptr, ptr %2, align 8
  %49 = getelementptr inbounds %struct._pdo_dbh_t, ptr %48, i32 0, i32 4
  %50 = load i32, ptr %49, align 8
  %51 = and i32 %50, 1
  %52 = icmp ne i32 %51, 0
  br i1 %52, label %53, label %55

53:                                               ; preds = %47
  %54 = load ptr, ptr %3, align 8
  call void @free(ptr noundef %54) #9
  br label %57

55:                                               ; preds = %47
  %56 = load ptr, ptr %3, align 8
  call void @_efree(ptr noundef %56)
  br label %57

57:                                               ; preds = %55, %53
  %58 = load ptr, ptr %2, align 8
  %59 = getelementptr inbounds %struct._pdo_dbh_t, ptr %58, i32 0, i32 1
  store ptr null, ptr %59, align 8
  br label %60

60:                                               ; preds = %57, %1
  ret void
}