; Function Attrs: nounwind uwtable
define internal void @sqlite_handle_closer(ptr nocapture noundef %0) #0 {
  %2 = getelementptr inbounds i8, ptr %0, i64 8
  %3 = load ptr, ptr %2, align 8
  %.not = icmp eq ptr %3, null
  br i1 %.not, label %25, label %4

4:                                                ; preds = %1
  tail call fastcc void @pdo_sqlite_cleanup_callbacks(ptr noundef nonnull %3)
  %5 = load ptr, ptr %3, align 8
  %.not18 = icmp eq ptr %5, null
  br i1 %.not18, label %8, label %6

6:                                                ; preds = %4
  %7 = tail call i32 @sqlite3_close_v2(ptr noundef nonnull %5) #11
  store ptr null, ptr %3, align 8
  br label %8

8:                                                ; preds = %6, %4
  %9 = getelementptr inbounds i8, ptr %3, i64 24
  %10 = load ptr, ptr %9, align 8
  %.not19 = icmp eq ptr %10, null
  br i1 %.not19, label %18, label %11

11:                                               ; preds = %8
  %12 = getelementptr inbounds i8, ptr %0, i64 32
  %13 = load i32, ptr %12, align 8
  %14 = and i32 %13, 1
  %.not20 = icmp eq i32 %14, 0
  br i1 %.not20, label %16, label %15

15:                                               ; preds = %11
  tail call void @free(ptr noundef nonnull %10) #11
  br label %17

16:                                               ; preds = %11
  tail call void @_efree(ptr noundef nonnull %10) #11
  br label %17

17:                                               ; preds = %16, %15
  store ptr null, ptr %9, align 8
  br label %18

18:                                               ; preds = %17, %8
  %19 = getelementptr inbounds i8, ptr %0, i64 32
  %20 = load i32, ptr %19, align 8
  %21 = and i32 %20, 1
  %.not21 = icmp eq i32 %21, 0
  br i1 %.not21, label %23, label %22

22:                                               ; preds = %18
  tail call void @free(ptr noundef nonnull %3) #11
  br label %24

23:                                               ; preds = %18
  tail call void @_efree(ptr noundef nonnull %3) #11
  br label %24

24:                                               ; preds = %23, %22
  store ptr null, ptr %2, align 8
  br label %25

25:                                               ; preds = %24, %1
  ret void
}